; Function Attrs: nounwind uwtable
define internal void @quantize_fs_dither(ptr noundef readonly captures(none) %0, ptr noundef readonly captures(none) %1, ptr noundef readonly captures(none) %2, i32 noundef %3) #0 {
  %5 = getelementptr inbounds nuw i8, ptr %0, i64 144
  %6 = load i32, ptr %5, align 8, !tbaa !51
  %.fr114 = freeze i32 %6
  %7 = getelementptr inbounds nuw i8, ptr %0, i64 136
  %8 = load i32, ptr %7, align 8, !tbaa !70
  %.fr = freeze i32 %8
  %9 = getelementptr inbounds nuw i8, ptr %0, i64 424
  %10 = load ptr, ptr %9, align 8, !tbaa !99
  %11 = icmp sgt i32 %3, 0
  br i1 %11, label %.lr.ph105, label %._crit_edge106

.lr.ph105:                                        ; preds = %4
  %12 = getelementptr inbounds nuw i8, ptr %0, i64 624
  %13 = load ptr, ptr %12, align 8, !tbaa !42
  %14 = zext i32 %.fr to i64
  %15 = icmp sgt i32 %.fr114, 0
  %16 = getelementptr inbounds nuw i8, ptr %13, i64 152
  %17 = add i32 %.fr, -1
  %18 = mul i32 %17, %.fr114
  %19 = zext i32 %18 to i64
  %20 = zext i32 %17 to i64
  %21 = sub nsw i32 0, %.fr114
  %22 = getelementptr inbounds nuw i8, ptr %13, i64 120
  %23 = add i32 %.fr, 1
  %24 = zext i32 %23 to i64
  %25 = getelementptr inbounds nuw i8, ptr %13, i64 56
  %26 = getelementptr inbounds nuw i8, ptr %13, i64 40
  br i1 %15, label %.lr.ph105.split.us, label %.lr.ph105.split.preheader

.lr.ph105.split.preheader:                        ; preds = %.lr.ph105
  %wide.trip.count = zext nneg i32 %3 to i64
  br label %.lr.ph105.split

.lr.ph105.split.us:                               ; preds = %.lr.ph105
  %.not8990 = icmp eq i32 %.fr, 0
  %wide.trip.count143 = zext nneg i32 %3 to i64
  %wide.trip.count133 = zext nneg i32 %.fr114 to i64
  br i1 %.not8990, label %.lr.ph101.us.us.preheader, label %.lr.ph101.us

.lr.ph101.us.us.preheader:                        ; preds = %.lr.ph105.split.us
  %wide.trip.count138 = zext nneg i32 %.fr114 to i64
  br label %.lr.ph101.us.us

.lr.ph101.us.us:                                  ; preds = %.lr.ph101.us.us.preheader, %._crit_edge102.split.us.us.us
  %indvars.iv140 = phi i64 [ 0, %.lr.ph101.us.us.preheader ], [ %indvars.iv.next141, %._crit_edge102.split.us.us.us ]
  %27 = getelementptr inbounds nuw ptr, ptr %2, i64 %indvars.iv140
  %28 = load ptr, ptr %27, align 8, !tbaa !63
  tail call void @jzero_far(ptr noundef %28, i64 noundef %14) #7
  %29 = load i32, ptr %16, align 8, !tbaa !82
  %.not88.us.us.us = icmp eq i32 %29, 0
  br i1 %.not88.us.us.us, label %.lr.ph101.split.us.split.us.us.us, label %.lr.ph101.split.us.split.us113.us

.lr.ph101.split.us.split.us113.us:                ; preds = %.lr.ph101.us.us, %.lr.ph101.split.us.split.us113.us
  %indvars.iv130 = phi i64 [ %indvars.iv.next131, %.lr.ph101.split.us.split.us113.us ], [ 0, %.lr.ph101.us.us ]
  %30 = getelementptr inbounds nuw [4 x ptr], ptr %22, i64 0, i64 %indvars.iv130
  %31 = load ptr, ptr %30, align 8, !tbaa !48
  %32 = getelementptr inbounds nuw i16, ptr %31, i64 %24
  store i16 0, ptr %32, align 2, !tbaa !100
  %indvars.iv.next131 = add nuw nsw i64 %indvars.iv130, 1
  %exitcond134.not = icmp eq i64 %indvars.iv.next131, %wide.trip.count133
  br i1 %exitcond134.not, label %._crit_edge102.split.us.us.us, label %.lr.ph101.split.us.split.us113.us, !llvm.loop !101

._crit_edge102.split.us.us.us:                    ; preds = %.lr.ph101.split.us.split.us113.us, %.lr.ph101.split.us.split.us.us.us
  %33 = zext i1 %.not88.us.us.us to i32
  store i32 %33, ptr %16, align 8, !tbaa !82
  %indvars.iv.next141 = add nuw nsw i64 %indvars.iv140, 1
  %exitcond144.not = icmp eq i64 %indvars.iv.next141, %wide.trip.count143
  br i1 %exitcond144.not, label %._crit_edge106, label %.lr.ph101.us.us, !llvm.loop !102

.lr.ph101.split.us.split.us.us.us:                ; preds = %.lr.ph101.us.us, %.lr.ph101.split.us.split.us.us.us
  %indvars.iv135 = phi i64 [ %indvars.iv.next136, %.lr.ph101.split.us.split.us.us.us ], [ 0, %.lr.ph101.us.us ]
  %34 = getelementptr inbounds nuw [4 x ptr], ptr %22, i64 0, i64 %indvars.iv135
  %35 = load ptr, ptr %34, align 8, !tbaa !48
  store i16 0, ptr %35, align 2, !tbaa !100
  %indvars.iv.next136 = add nuw nsw i64 %indvars.iv135, 1
  %exitcond139.not = icmp eq i64 %indvars.iv.next136, %wide.trip.count138
  br i1 %exitcond139.not, label %._crit_edge102.split.us.us.us, label %.lr.ph101.split.us.split.us.us.us, !llvm.loop !101

.lr.ph101.us:                                     ; preds = %.lr.ph105.split.us, %._crit_edge102.split.us109
  %indvars.iv125 = phi i64 [ %indvars.iv.next126, %._crit_edge102.split.us109 ], [ 0, %.lr.ph105.split.us ]
  %36 = getelementptr inbounds nuw ptr, ptr %2, i64 %indvars.iv125
  %37 = load ptr, ptr %36, align 8, !tbaa !63
  tail call void @jzero_far(ptr noundef %37, i64 noundef %14) #7
  %38 = getelementptr inbounds nuw ptr, ptr %1, i64 %indvars.iv125
  br label %39

39:                                               ; preds = %.lr.ph101.us, %._crit_edge.us
  %indvars.iv120 = phi i64 [ 0, %.lr.ph101.us ], [ %indvars.iv.next121, %._crit_edge.us ]
  %40 = load ptr, ptr %38, align 8, !tbaa !63
  %41 = getelementptr inbounds nuw i8, ptr %40, i64 %indvars.iv120
  %42 = load ptr, ptr %36, align 8, !tbaa !63
  %43 = load i32, ptr %16, align 8, !tbaa !82
  %.not88.us108 = icmp eq i32 %43, 0
  br i1 %.not88.us108, label %50, label %44

44:                                               ; preds = %39
  %45 = getelementptr inbounds nuw i8, ptr %41, i64 %19
  %46 = getelementptr inbounds nuw i8, ptr %42, i64 %20
  %47 = getelementptr inbounds nuw [4 x ptr], ptr %22, i64 0, i64 %indvars.iv120
  %48 = load ptr, ptr %47, align 8, !tbaa !48
  %49 = getelementptr inbounds nuw i16, ptr %48, i64 %24
  br label %.lr.ph.us

50:                                               ; preds = %39
  %51 = getelementptr inbounds nuw [4 x ptr], ptr %22, i64 0, i64 %indvars.iv120
  %52 = load ptr, ptr %51, align 8, !tbaa !48
  br label %.lr.ph.us

.lr.ph.us:                                        ; preds = %50, %44
  %.085.us = phi ptr [ %46, %44 ], [ %42, %50 ]
  %.083.us = phi ptr [ %45, %44 ], [ %41, %50 ]
  %.082.us = phi ptr [ %49, %44 ], [ %52, %50 ]
  %.080.us = phi i64 [ -1, %44 ], [ 1, %50 ]
  %.079.us = phi i32 [ %21, %44 ], [ %.fr114, %50 ]
  %53 = load ptr, ptr %25, align 8, !tbaa !84
  %54 = getelementptr inbounds nuw ptr, ptr %53, i64 %indvars.iv120
  %55 = load ptr, ptr %54, align 8, !tbaa !63
  %56 = load ptr, ptr %26, align 8, !tbaa !67
  %57 = getelementptr inbounds nuw ptr, ptr %56, i64 %indvars.iv120
  %58 = load ptr, ptr %57, align 8, !tbaa !63
  %59 = sext i32 %.079.us to i64
  br label %60

60:                                               ; preds = %60, %.lr.ph.us
  %.097.us = phi i32 [ 0, %.lr.ph.us ], [ %89, %60 ]
  %.07596.us = phi i32 [ 0, %.lr.ph.us ], [ %83, %60 ]
  %.07695.us = phi i32 [ %.fr, %.lr.ph.us ], [ %92, %60 ]
  %.08194.us = phi i32 [ 0, %.lr.ph.us ], [ %88, %60 ]
  %.193.us = phi ptr [ %.082.us, %.lr.ph.us ], [ %61, %60 ]
  %.18492.us = phi ptr [ %.083.us, %.lr.ph.us ], [ %90, %60 ]
  %.18691.us = phi ptr [ %.085.us, %.lr.ph.us ], [ %91, %60 ]
  %61 = getelementptr inbounds i16, ptr %.193.us, i64 %.080.us
  %62 = load i16, ptr %61, align 2, !tbaa !100
  %63 = sext i16 %62 to i32
  %64 = add nsw i32 %.097.us, 8
  %65 = add nsw i32 %64, %63
  %66 = ashr i32 %65, 4
  %67 = load i8, ptr %.18492.us, align 1, !tbaa !34
  %68 = zext i8 %67 to i32
  %69 = add nsw i32 %66, %68
  %70 = sext i32 %69 to i64
  %71 = getelementptr inbounds i8, ptr %10, i64 %70
  %72 = load i8, ptr %71, align 1, !tbaa !34
  %73 = zext i8 %72 to i32
  %74 = zext i8 %72 to i64
  %75 = getelementptr inbounds nuw i8, ptr %55, i64 %74
  %76 = load i8, ptr %75, align 1, !tbaa !34
  %77 = load i8, ptr %.18691.us, align 1, !tbaa !34
  %78 = add i8 %77, %76
  store i8 %78, ptr %.18691.us, align 1, !tbaa !34
  %79 = zext i8 %76 to i64
  %80 = getelementptr inbounds nuw i8, ptr %58, i64 %79
  %81 = load i8, ptr %80, align 1, !tbaa !34
  %82 = zext i8 %81 to i32
  %83 = sub nsw i32 %73, %82
  %84 = mul nsw i32 %83, 3
  %85 = add nsw i32 %84, %.08194.us
  %86 = trunc nsw i32 %85 to i16
  store i16 %86, ptr %.193.us, align 2, !tbaa !100
  %87 = mul nsw i32 %83, 5
  %88 = add nsw i32 %87, %.07596.us
  %89 = mul nsw i32 %83, 7
  %90 = getelementptr inbounds i8, ptr %.18492.us, i64 %59
  %91 = getelementptr inbounds i8, ptr %.18691.us, i64 %.080.us
  %92 = add i32 %.07695.us, -1
  %.not89.us = icmp eq i32 %92, 0
  br i1 %.not89.us, label %._crit_edge.us, label %60, !llvm.loop !103

._crit_edge.us:                                   ; preds = %60
  %93 = trunc nsw i32 %88 to i16
  store i16 %93, ptr %61, align 2, !tbaa !100
  %indvars.iv.next121 = add nuw nsw i64 %indvars.iv120, 1
  %exitcond124.not = icmp eq i64 %indvars.iv.next121, %wide.trip.count133
  br i1 %exitcond124.not, label %._crit_edge102.split.us109, label %39, !llvm.loop !101

._crit_edge102.split.us109:                       ; preds = %._crit_edge.us
  %94 = load i32, ptr %16, align 8, !tbaa !82
  %.not.us = icmp eq i32 %94, 0
  %95 = zext i1 %.not.us to i32
  store i32 %95, ptr %16, align 8, !tbaa !82
  %indvars.iv.next126 = add nuw nsw i64 %indvars.iv125, 1
  %exitcond129.not = icmp eq i64 %indvars.iv.next126, %wide.trip.count143
  br i1 %exitcond129.not, label %._crit_edge106, label %.lr.ph101.us, !llvm.loop !102

.lr.ph105.split:                                  ; preds = %.lr.ph105.split.preheader, %.lr.ph105.split
  %indvars.iv = phi i64 [ 0, %.lr.ph105.split.preheader ], [ %indvars.iv.next, %.lr.ph105.split ]
  %96 = getelementptr inbounds nuw ptr, ptr %2, i64 %indvars.iv
  %97 = load ptr, ptr %96, align 8, !tbaa !63
  tail call void @jzero_far(ptr noundef %97, i64 noundef %14) #7
  %98 = load i32, ptr %16, align 8, !tbaa !82
  %.not = icmp eq i32 %98, 0
  %99 = zext i1 %.not to i32
  store i32 %99, ptr %16, align 8, !tbaa !82
  %indvars.iv.next = add nuw nsw i64 %indvars.iv, 1
  %exitcond.not = icmp eq i64 %indvars.iv.next, %wide.trip.count
  br i1 %exitcond.not, label %._crit_edge106, label %.lr.ph105.split, !llvm.loop !102

._crit_edge106:                                   ; preds = %.lr.ph105.split, %._crit_edge102.split.us109, %._crit_edge102.split.us.us.us, %4
  ret void
}